target datalayout = "e-m:e-p270:32:32-p271:32:32-p272:64:64-i64:64-i128:128-f80:128-n8:16:32:64-S128"
target triple = "x86_64-pc-linux-gnu"

%class.ObjArrayAllocator = type <{ %class.MemAllocator, i32, i8, [3 x i8] }>
%class.MemAllocator = type { ptr, ptr, ptr, i64 }

@_ZTV18ZObjArrayAllocator = hidden unnamed_addr constant { [3 x ptr] } { [3 x ptr] [ptr null, ptr null, ptr @_ZNK18ZObjArrayAllocator10initializeEPP12HeapWordImpl] }, align 8
@_ZTV17ObjArrayAllocator = external unnamed_addr constant { [3 x ptr] }, align 8
@_ZTV12MemAllocator = linkonce_odr hidden unnamed_addr constant { [3 x ptr] } { [3 x ptr] [ptr null, ptr null, ptr @__cxa_pure_virtual] }, comdat, align 8

; Function Attrs: mustprogress nounwind uwtable
define linkonce_odr hidden void @_ZN12MemAllocatorC2EP5KlassmP6Thread(ptr noundef nonnull align 8 dereferenceable(32) %0, ptr noundef %1, i64 noundef %2, ptr noundef %3) unnamed_addr #1 comdat align 2 {
  %5 = alloca ptr, align 8
  %6 = alloca ptr, align 8
  %7 = alloca i64, align 8
  %8 = alloca ptr, align 8
  store ptr %0, ptr %5, align 8
  store ptr %1, ptr %6, align 8
  store i64 %2, ptr %7, align 8
  store ptr %3, ptr %8, align 8
  %9 = load ptr, ptr %5, align 8
  store ptr getelementptr inbounds inrange(-16, 8) ({ [3 x ptr] }, ptr @_ZTV12MemAllocator, i32 0, i32 0, i32 2), ptr %9, align 8
  %10 = getelementptr inbounds %class.MemAllocator, ptr %9, i32 0, i32 1
  %11 = load ptr, ptr %8, align 8
  store ptr %11, ptr %10, align 8
  %12 = getelementptr inbounds %class.MemAllocator, ptr %9, i32 0, i32 2
  %13 = load ptr, ptr %6, align 8
  store ptr %13, ptr %12, align 8
  %14 = getelementptr inbounds %class.MemAllocator, ptr %9, i32 0, i32 3
  %15 = load i64, ptr %7, align 8
  store i64 %15, ptr %14, align 8
  ret void
}

; Function Attrs: mustprogress nounwind uwtable
define linkonce_odr hidden void @_ZN17ObjArrayAllocatorC2EP5KlassmibP6Thread(ptr noundef nonnull align 8 dereferenceable(37) %0, ptr noundef %1, i64 noundef %2, i32 noundef %3, i1 noundef zeroext %4, ptr noundef %5) unnamed_addr #1 comdat align 2 {
  %7 = alloca ptr, align 8
  %8 = alloca ptr, align 8
  %9 = alloca i64, align 8
  %10 = alloca i32, align 4
  %11 = alloca i8, align 1
  %12 = alloca ptr, align 8
  store ptr %0, ptr %7, align 8
  store ptr %1, ptr %8, align 8
  store i64 %2, ptr %9, align 8
  store i32 %3, ptr %10, align 4
  %13 = zext i1 %4 to i8
  store i8 %13, ptr %11, align 1
  store ptr %5, ptr %12, align 8
  %14 = load ptr, ptr %7, align 8
  %15 = load ptr, ptr %8, align 8
  %16 = load i64, ptr %9, align 8
  %17 = load ptr, ptr %12, align 8
  call void @_ZN12MemAllocatorC2EP5KlassmP6Thread(ptr noundef nonnull align 8 dereferenceable(32) %14, ptr noundef %15, i64 noundef %16, ptr noundef %17)
  store ptr getelementptr inbounds inrange(-16, 8) ({ [3 x ptr] }, ptr @_ZTV17ObjArrayAllocator, i32 0, i32 0, i32 2), ptr %14, align 8
  %18 = getelementptr inbounds %class.ObjArrayAllocator, ptr %14, i32 0, i32 1
  %19 = load i32, ptr %10, align 4
  store i32 %19, ptr %18, align 8
  %20 = getelementptr inbounds %class.ObjArrayAllocator, ptr %14, i32 0, i32 2
  %21 = load i8, ptr %11, align 1
  %22 = trunc i8 %21 to i1
  %23 = zext i1 %22 to i8
  store i8 %23, ptr %20, align 4
  ret void
}

; Function Attrs: mustprogress nounwind uwtable
define hidden void @_ZN18ZObjArrayAllocatorC2EP5KlassmibP6Thread(ptr noundef nonnull align 8 dereferenceable(37) %0, ptr noundef %1, i64 noundef %2, i32 noundef %3, i1 noundef zeroext %4, ptr noundef %5) unnamed_addr #1 align 2 {
  %7 = alloca ptr, align 8
  %8 = alloca ptr, align 8
  %9 = alloca i64, align 8
  %10 = alloca i32, align 4
  %11 = alloca i8, align 1
  %12 = alloca ptr, align 8
  store ptr %0, ptr %7, align 8
  store ptr %1, ptr %8, align 8
  store i64 %2, ptr %9, align 8
  store i32 %3, ptr %10, align 4
  %13 = zext i1 %4 to i8
  store i8 %13, ptr %11, align 1
  store ptr %5, ptr %12, align 8
  %14 = load ptr, ptr %7, align 8
  %15 = load ptr, ptr %8, align 8
  %16 = load i64, ptr %9, align 8
  %17 = load i32, ptr %10, align 4
  %18 = load i8, ptr %11, align 1
  %19 = trunc i8 %18 to i1
  %20 = load ptr, ptr %12, align 8
  call void @_ZN17ObjArrayAllocatorC2EP5KlassmibP6Thread(ptr noundef nonnull align 8 dereferenceable(37) %14, ptr noundef %15, i64 noundef %16, i32 noundef %17, i1 noundef zeroext %19, ptr noundef %20)
  store ptr getelementptr inbounds inrange(-16, 8) ({ [3 x ptr] }, ptr @_ZTV18ZObjArrayAllocator, i32 0, i32 0, i32 2), ptr %14, align 8
  ret void
}