; Function Attrs: mustprogress nofree norecurse nosync nounwind willreturn memory(argmem: write) uwtable
define hidden void @_ZN18ZObjArrayAllocatorC2EP5KlassmibP6Thread(ptr nocapture noundef nonnull writeonly align 8 dereferenceable(37) %0, ptr noundef %1, i64 noundef %2, i32 noundef %3, i1 noundef zeroext %4, ptr noundef %5) unnamed_addr #0 align 2 {
  %7 = zext i1 %4 to i8
  %8 = getelementptr inbounds i8, ptr %0, i64 8
  store ptr %5, ptr %8, align 8
  %9 = getelementptr inbounds i8, ptr %0, i64 16
  store ptr %1, ptr %9, align 8
  %10 = getelementptr inbounds i8, ptr %0, i64 24
  store i64 %2, ptr %10, align 8
  %11 = getelementptr inbounds i8, ptr %0, i64 32
  store i32 %3, ptr %11, align 8
  %12 = getelementptr inbounds i8, ptr %0, i64 36
  store i8 %7, ptr %12, align 4
  store ptr getelementptr inbounds inrange(-16, 8) (i8, ptr @_ZTV18ZObjArrayAllocator, i64 16), ptr %0, align 8
  ret void
}